; Function Attrs: mustprogress uwtable
define dso_local void @_ZN17btConvexHullShape8addPointERK9btVector3b(ptr noundef nonnull align 8 dereferenceable(152) %0, ptr noundef nonnull readonly align 4 captures(none) dereferenceable(16) %1, i1 noundef zeroext %2) local_unnamed_addr #0 align 2 {
  %4 = getelementptr inbounds nuw i8, ptr %0, i64 124
  %5 = load i32, ptr %4, align 4, !tbaa !16
  %6 = getelementptr inbounds nuw i8, ptr %0, i64 128
  %7 = load i32, ptr %6, align 8, !tbaa !17
  %8 = icmp eq i32 %5, %7
  br i1 %8, label %9, label %_ZN20btAlignedObjectArrayI9btVector3E9push_backERKS0_.exit

9:                                                ; preds = %3
  %.not.i.i = icmp eq i32 %5, 0
  %10 = shl nsw i32 %5, 1
  %11 = select i1 %.not.i.i, i32 1, i32 %10
  %12 = icmp slt i32 %5, %11
  br i1 %12, label %13, label %_ZN20btAlignedObjectArrayI9btVector3E9push_backERKS0_.exit

13:                                               ; preds = %9
  %.not.i.i.i = icmp eq i32 %11, 0
  br i1 %.not.i.i.i, label %_ZN20btAlignedObjectArrayI9btVector3E8allocateEi.exit.i.i, label %14

14:                                               ; preds = %13
  %15 = sext i32 %11 to i64
  %16 = shl nsw i64 %15, 4
  %17 = tail call noundef ptr @_Z22btAlignedAllocInternalmi(i64 noundef %16, i32 noundef 16)
  %.pre.i = load i32, ptr %4, align 4, !tbaa !16
  br label %_ZN20btAlignedObjectArrayI9btVector3E8allocateEi.exit.i.i

_ZN20btAlignedObjectArrayI9btVector3E8allocateEi.exit.i.i: ; preds = %14, %13
  %18 = phi i32 [ %.pre.i, %14 ], [ %5, %13 ]
  %.0.i.i.i = phi ptr [ %17, %14 ], [ null, %13 ]
  %19 = icmp sgt i32 %18, 0
  br i1 %19, label %.lr.ph.i.i.i, label %_ZNK20btAlignedObjectArrayI9btVector3E4copyEiiPS0_.exit.i.i

.lr.ph.i.i.i:                                     ; preds = %_ZN20btAlignedObjectArrayI9btVector3E8allocateEi.exit.i.i
  %20 = getelementptr inbounds nuw i8, ptr %0, i64 136
  %wide.trip.count.i.i.i = zext nneg i32 %18 to i64
  br label %21

21:                                               ; preds = %21, %.lr.ph.i.i.i
  %indvars.iv.i.i.i = phi i64 [ 0, %.lr.ph.i.i.i ], [ %indvars.iv.next.i.i.i, %21 ]
  %22 = getelementptr inbounds nuw %class.btVector3, ptr %.0.i.i.i, i64 %indvars.iv.i.i.i
  %23 = load ptr, ptr %20, align 8, !tbaa !15
  %24 = getelementptr inbounds nuw %class.btVector3, ptr %23, i64 %indvars.iv.i.i.i
  tail call void @llvm.memcpy.p0.p0.i64(ptr noundef nonnull align 4 dereferenceable(16) %22, ptr noundef nonnull align 4 dereferenceable(16) %24, i64 16, i1 false), !tbaa.struct !20
  %indvars.iv.next.i.i.i = add nuw nsw i64 %indvars.iv.i.i.i, 1
  %exitcond.not.i.i.i = icmp eq i64 %indvars.iv.next.i.i.i, %wide.trip.count.i.i.i
  br i1 %exitcond.not.i.i.i, label %_ZNK20btAlignedObjectArrayI9btVector3E4copyEiiPS0_.exit.i.i, label %21, !llvm.loop !22

_ZNK20btAlignedObjectArrayI9btVector3E4copyEiiPS0_.exit.i.i: ; preds = %21, %_ZN20btAlignedObjectArrayI9btVector3E8allocateEi.exit.i.i
  %25 = getelementptr inbounds nuw i8, ptr %0, i64 136
  %26 = load ptr, ptr %25, align 8, !tbaa !15
  %.not.i5.i.i = icmp eq ptr %26, null
  br i1 %.not.i5.i.i, label %_ZN20btAlignedObjectArrayI9btVector3E10deallocateEv.exit.i.i, label %27

27:                                               ; preds = %_ZNK20btAlignedObjectArrayI9btVector3E4copyEiiPS0_.exit.i.i
  %28 = getelementptr inbounds nuw i8, ptr %0, i64 144
  %29 = load i8, ptr %28, align 8, !tbaa !7, !range !24, !noundef !25
  %30 = trunc nuw i8 %29 to i1
  br i1 %30, label %31, label %_ZN20btAlignedObjectArrayI9btVector3E10deallocateEv.exit.i.i

31:                                               ; preds = %27
  tail call void @_Z21btAlignedFreeInternalPv(ptr noundef nonnull %26)
  br label %_ZN20btAlignedObjectArrayI9btVector3E10deallocateEv.exit.i.i

_ZN20btAlignedObjectArrayI9btVector3E10deallocateEv.exit.i.i: ; preds = %31, %27, %_ZNK20btAlignedObjectArrayI9btVector3E4copyEiiPS0_.exit.i.i
  %32 = getelementptr inbounds nuw i8, ptr %0, i64 144
  store i8 1, ptr %32, align 8, !tbaa !7
  store ptr %.0.i.i.i, ptr %25, align 8, !tbaa !15
  store i32 %11, ptr %6, align 8, !tbaa !17
  %.pre2.i = load i32, ptr %4, align 4, !tbaa !16
  br label %_ZN20btAlignedObjectArrayI9btVector3E9push_backERKS0_.exit

_ZN20btAlignedObjectArrayI9btVector3E9push_backERKS0_.exit: ; preds = %3, %9, %_ZN20btAlignedObjectArrayI9btVector3E10deallocateEv.exit.i.i
  %33 = phi i32 [ %.pre2.i, %_ZN20btAlignedObjectArrayI9btVector3E10deallocateEv.exit.i.i ], [ %5, %9 ], [ %5, %3 ]
  %34 = getelementptr inbounds nuw i8, ptr %0, i64 136
  %35 = load ptr, ptr %34, align 8, !tbaa !15
  %36 = sext i32 %33 to i64
  %37 = getelementptr inbounds %class.btVector3, ptr %35, i64 %36
  tail call void @llvm.memcpy.p0.p0.i64(ptr noundef nonnull align 4 dereferenceable(16) %37, ptr noundef nonnull align 4 dereferenceable(16) %1, i64 16, i1 false), !tbaa.struct !20
  %38 = load i32, ptr %4, align 4, !tbaa !16
  %39 = add nsw i32 %38, 1
  store i32 %39, ptr %4, align 4, !tbaa !16
  br i1 %2, label %40, label %41

40:                                               ; preds = %_ZN20btAlignedObjectArrayI9btVector3E9push_backERKS0_.exit
  tail call void @_ZN34btPolyhedralConvexAabbCachingShape15recalcLocalAabbEv(ptr noundef nonnull align 8 dereferenceable(113) %0)
  br label %41

41:                                               ; preds = %40, %_ZN20btAlignedObjectArrayI9btVector3E9push_backERKS0_.exit
  ret void
}